target datalayout = "e-m:e-p270:32:32-p271:32:32-p272:64:64-i64:64-i128:128-f80:128-n8:16:32:64-S128"
target triple = "x86_64-pc-linux-gnu"

%struct.AVCodecContext = type { ptr, i32, i32, ptr, i32, i32, ptr, ptr, ptr, i64, i32, i32, ptr, i32, %struct.AVRational, %struct.AVRational, %struct.AVRational, i32, i32, i32, i32, i32, %struct.AVRational, i32, i32, i32, i32, i32, i32, i32, i32, i32, i32, i32, ptr, ptr, i32, float, float, float, float, float, float, float, float, float, i32, i32, i32, i32, i32, i32, i32, i32, i32, i32, i32, i32, ptr, ptr, ptr, i32, i32, i32, i32, i32, i32, i32, i32, i32, i32, %struct.AVChannelLayout, i32, i32, i32, i32, i32, i32, i32, i32, ptr, i32, i32, i32, float, float, i32, i32, i32, i32, i32, ptr, i64, i64, float, float, i32, i32, ptr, ptr, i32, i32, i32, i32, i32, ptr, ptr, ptr, ptr, i32, i32, [8 x i64], i32, i32, i32, i32, i32, i32, i32, ptr, ptr, i32, i32, i32, i32, i32, i32, i32, i32, i32, i32, ptr, ptr, i32, i32, ptr, ptr, ptr, ptr, i32, i32, i64, i32, i32, i64, ptr, i64, ptr, i32, ptr, i32 }
%struct.AVRational = type { i32, i32 }
%struct.AVChannelLayout = type { i32, i32, %union.anon.2, ptr }
%union.anon.2 = type { i64 }
%struct.VVCContext = type { ptr, ptr, %struct.CodedBitstreamFragment, %struct.VVCParamSets, i32, i32, i32, i32, i32, i32, i32, i16, i16, ptr, ptr, i32, i64, i32 }
%struct.CodedBitstreamFragment = type { ptr, i64, i64, ptr, i32, i32, ptr }
%struct.VVCParamSets = type { [16 x ptr], [64 x ptr], [8 x ptr], [4 x ptr], [8 x ptr], i16 }
%struct.VVCFrameContext = type { ptr, [17 x %struct.VVCFrame], ptr, ptr, %struct.VVCFrameParamSets, ptr, i32, i32, ptr, %struct.VVCDSPContext, %struct.VideoDSPContext, ptr, i64, ptr, ptr, ptr, ptr, %struct.anon }
%struct.VVCFrame = type { ptr, ptr, ptr, ptr, ptr, ptr, i32, i32, i32, %struct.VVCWindow, i32, i32, ptr, ptr, i16, i8, ptr }
%struct.VVCWindow = type { i16, i16, i16, i16 }
%struct.VVCFrameParamSets = type { ptr, ptr, %struct.VVCPH, [8 x ptr], %struct.VVCLMCS, ptr }
%struct.VVCPH = type { ptr, ptr, i32, i32, i8, [3 x i16], i8, [3 x i16], %struct.PredWeightTable }
%struct.PredWeightTable = type { [2 x i8], [2 x i8], [2 x [2 x [15 x i8]]], [2 x [3 x [15 x i16]]], [2 x [3 x [15 x i16]]] }
%struct.VVCLMCS = type { i8, i8, %union.anon.0, %union.anon.0, [17 x i16], [16 x i16] }
%union.anon.0 = type { [4096 x i16] }
%struct.VVCDSPContext = type { %struct.VVCInterDSPContext, %struct.VVCIntraDSPContext, %struct.VVCItxDSPContext, %struct.VVCLMCSDSPContext, %struct.VVCLFDSPContext, %struct.VVCSAODSPContext, %struct.VVCALFDSPContext }
%struct.VVCInterDSPContext = type { [2 x [7 x [2 x [2 x ptr]]]], [2 x [7 x [2 x [2 x ptr]]]], [2 x [7 x [2 x [2 x ptr]]]], [2 x [7 x ptr]], [2 x [7 x ptr]], [2 x [7 x ptr]], ptr, ptr, ptr, ptr, ptr, ptr, ptr, ptr, ptr, ptr, ptr, [2 x [2 x ptr]] }
%struct.VVCIntraDSPContext = type { ptr, ptr, ptr, ptr, ptr, ptr, ptr, ptr, ptr, ptr }
%struct.VVCItxDSPContext = type { ptr, ptr, [3 x [6 x ptr]], ptr, ptr }
%struct.VVCLMCSDSPContext = type { ptr }
%struct.VVCLFDSPContext = type { [2 x ptr], [2 x ptr], [2 x ptr] }
%struct.VVCSAODSPContext = type { [9 x ptr], [9 x ptr], [2 x ptr] }
%struct.VVCALFDSPContext = type { [2 x ptr], ptr, ptr, ptr }
%struct.VideoDSPContext = type { ptr, ptr }
%struct.anon = type { ptr, ptr, ptr, ptr, [2 x ptr], [2 x ptr], [2 x ptr], [2 x ptr], [2 x ptr], [3 x ptr], ptr, ptr, [2 x ptr], ptr, ptr, [2 x ptr], ptr, ptr, ptr, [2 x ptr], ptr, [3 x ptr], ptr, [2 x ptr], [2 x ptr], [2 x ptr], [2 x [3 x ptr]], [2 x ptr], [2 x ptr], [3 x ptr], [3 x ptr], [3 x [2 x ptr]], [3 x [2 x ptr]], ptr, ptr, ptr, [3 x ptr], %struct.anon.1 }
%struct.anon.1 = type { i32, i32, i32, i32, i32, i32, i32, i32, i32, i32, i32, i32 }

; Function Attrs: nounwind uwtable
define internal ptr @get_frame_context(ptr noundef %0, ptr noundef %1, i32 noundef %2) #0 {
  %4 = alloca ptr, align 8
  %5 = alloca ptr, align 8
  %6 = alloca i32, align 4
  %7 = alloca i32, align 4
  %8 = alloca i32, align 4
  store ptr %0, ptr %4, align 8, !tbaa !46
  store ptr %1, ptr %5, align 8, !tbaa !4
  store i32 %2, ptr %6, align 4, !tbaa !10
  call void @llvm.lifetime.start.p0(i64 4, ptr %7) #9
  %9 = load ptr, ptr %4, align 8, !tbaa !46
  %10 = getelementptr inbounds nuw %struct.VVCContext, ptr %9, i32 0, i32 15
  %11 = load i32, ptr %10, align 8, !tbaa !61
  store i32 %11, ptr %7, align 4, !tbaa !10
  call void @llvm.lifetime.start.p0(i64 4, ptr %8) #9
  %12 = load ptr, ptr %5, align 8, !tbaa !4
  %13 = load ptr, ptr %4, align 8, !tbaa !46
  %14 = getelementptr inbounds nuw %struct.VVCContext, ptr %13, i32 0, i32 14
  %15 = load ptr, ptr %14, align 8, !tbaa !62
  %16 = ptrtoint ptr %12 to i64
  %17 = ptrtoint ptr %15 to i64
  %18 = sub i64 %16, %17
  %19 = sdiv exact i64 %18, 21984
  %20 = load i32, ptr %6, align 4, !tbaa !10
  %21 = sext i32 %20 to i64
  %22 = add nsw i64 %19, %21
  %23 = load i32, ptr %7, align 4, !tbaa !10
  %24 = sext i32 %23 to i64
  %25 = add nsw i64 %22, %24
  %26 = load i32, ptr %7, align 4, !tbaa !10
  %27 = sext i32 %26 to i64
  %28 = srem i64 %25, %27
  %29 = trunc i64 %28 to i32
  store i32 %29, ptr %8, align 4, !tbaa !10
  %30 = load ptr, ptr %4, align 8, !tbaa !46
  %31 = getelementptr inbounds nuw %struct.VVCContext, ptr %30, i32 0, i32 14
  %32 = load ptr, ptr %31, align 8, !tbaa !62
  %33 = load i32, ptr %8, align 4, !tbaa !10
  %34 = sext i32 %33 to i64
  %35 = getelementptr inbounds %struct.VVCFrameContext, ptr %32, i64 %34
  call void @llvm.lifetime.end.p0(i64 4, ptr %8) #9
  call void @llvm.lifetime.end.p0(i64 4, ptr %7) #9
  ret ptr %35
}

; Function Attrs: cold nounwind optsize uwtable
define internal void @vvc_decode_flush(ptr noundef %0) #1 {
  %2 = alloca ptr, align 8
  %3 = alloca ptr, align 8
  %4 = alloca i32, align 4
  %5 = alloca ptr, align 8
  store ptr %0, ptr %2, align 8, !tbaa !27
  call void @llvm.lifetime.start.p0(i64 8, ptr %3) #9
  %6 = load ptr, ptr %2, align 8, !tbaa !27
  %7 = getelementptr inbounds nuw %struct.AVCodecContext, ptr %6, i32 0, i32 6
  %8 = load ptr, ptr %7, align 8, !tbaa !29
  store ptr %8, ptr %3, align 8, !tbaa !46
  call void @llvm.lifetime.start.p0(i64 4, ptr %4) #9
  store i32 0, ptr %4, align 4, !tbaa !10
  br label %9

9:                                                ; preds = %14, %1
  %10 = load ptr, ptr %3, align 8, !tbaa !46
  %11 = getelementptr inbounds nuw %struct.VVCContext, ptr %10, i32 0, i32 17
  %12 = load i32, ptr %11, align 8, !tbaa !110
  %13 = icmp ne i32 %12, 0
  br i1 %13, label %14, label %17

14:                                               ; preds = %9
  %15 = load ptr, ptr %3, align 8, !tbaa !46
  %16 = call i32 @wait_delayed_frame(ptr noundef %15, ptr noundef null, ptr noundef %4)
  br label %9, !llvm.loop !111

17:                                               ; preds = %9
  %18 = load ptr, ptr %3, align 8, !tbaa !46
  %19 = getelementptr inbounds nuw %struct.VVCContext, ptr %18, i32 0, i32 14
  %20 = load ptr, ptr %19, align 8, !tbaa !62
  %21 = icmp ne ptr %20, null
  br i1 %21, label %22, label %34

22:                                               ; preds = %17
  call void @llvm.lifetime.start.p0(i64 8, ptr %5) #9
  %23 = load ptr, ptr %3, align 8, !tbaa !46
  %24 = load ptr, ptr %3, align 8, !tbaa !46
  %25 = getelementptr inbounds nuw %struct.VVCContext, ptr %24, i32 0, i32 14
  %26 = load ptr, ptr %25, align 8, !tbaa !62
  %27 = load ptr, ptr %3, align 8, !tbaa !46
  %28 = getelementptr inbounds nuw %struct.VVCContext, ptr %27, i32 0, i32 16
  %29 = load i64, ptr %28, align 8, !tbaa !74
  %30 = sub i64 %29, 1
  %31 = trunc i64 %30 to i32
  %32 = call ptr @get_frame_context(ptr noundef %23, ptr noundef %26, i32 noundef %31)
  store ptr %32, ptr %5, align 8, !tbaa !4
  %33 = load ptr, ptr %5, align 8, !tbaa !4
  call void @ff_vvc_flush_dpb(ptr noundef %33)
  call void @llvm.lifetime.end.p0(i64 8, ptr %5) #9
  br label %34

34:                                               ; preds = %22, %17
  %35 = load ptr, ptr %3, align 8, !tbaa !46
  %36 = getelementptr inbounds nuw %struct.VVCContext, ptr %35, i32 0, i32 3
  %37 = getelementptr inbounds nuw %struct.VVCParamSets, ptr %36, i32 0, i32 5
  store i16 0, ptr %37, align 8, !tbaa !112
  %38 = load ptr, ptr %3, align 8, !tbaa !46
  %39 = getelementptr inbounds nuw %struct.VVCContext, ptr %38, i32 0, i32 6
  store i32 1, ptr %39, align 8, !tbaa !65
  call void @llvm.lifetime.end.p0(i64 4, ptr %4) #9
  call void @llvm.lifetime.end.p0(i64 8, ptr %3) #9
  ret void
}