; Function Attrs: cold nounwind optsize uwtable
define internal void @vvc_decode_flush(ptr noundef readonly captures(none) %0) #1 {
  %2 = alloca i32, align 4
  %3 = getelementptr inbounds nuw i8, ptr %0, i64 32
  %4 = load ptr, ptr %3, align 8, !tbaa !20
  call void @llvm.lifetime.start.p0(i64 4, ptr nonnull %2) #10
  %5 = getelementptr inbounds nuw i8, ptr %4, i64 936
  %6 = load i32, ptr %5, align 8, !tbaa !60
  %.not12 = icmp eq i32 %6, 0
  br i1 %.not12, label %._crit_edge, label %.lr.ph

.lr.ph:                                           ; preds = %1, %.lr.ph
  call fastcc void @wait_delayed_frame(ptr noundef nonnull %4, ptr noundef null, ptr noundef nonnull %2)
  %7 = load i32, ptr %5, align 8, !tbaa !60
  %.not = icmp eq i32 %7, 0
  br i1 %.not, label %._crit_edge, label %.lr.ph, !llvm.loop !272

._crit_edge:                                      ; preds = %.lr.ph, %1
  %8 = getelementptr inbounds nuw i8, ptr %4, i64 912
  %9 = load ptr, ptr %8, align 8, !tbaa !53
  %.not10 = icmp eq ptr %9, null
  br i1 %.not10, label %20, label %10

10:                                               ; preds = %._crit_edge
  %11 = getelementptr inbounds nuw i8, ptr %4, i64 928
  %12 = load i64, ptr %11, align 8, !tbaa !61
  %13 = getelementptr i8, ptr %4, i64 920
  %.val11 = load i32, ptr %13, align 8, !tbaa !52
  %14 = shl i64 %12, 32
  %sext = add i64 %14, -4294967296
  %15 = ashr exact i64 %sext, 32
  %16 = sext i32 %.val11 to i64
  %17 = add nsw i64 %15, %16
  %18 = srem i64 %17, %16
  %19 = getelementptr inbounds %struct.VVCFrameContext, ptr %9, i64 %18
  tail call void @ff_vvc_flush_dpb(ptr noundef nonnull %19) #10
  br label %20

20:                                               ; preds = %10, %._crit_edge
  %21 = getelementptr inbounds nuw i8, ptr %4, i64 864
  store i16 0, ptr %21, align 8, !tbaa !273
  %22 = getelementptr inbounds nuw i8, ptr %4, i64 880
  store i32 1, ptr %22, align 8, !tbaa !56
  call void @llvm.lifetime.end.p0(i64 4, ptr nonnull %2) #10
  ret void
}